; Function Attrs: inlinehint nounwind sspstrong uwtable
define internal fastcc i64 @nurat_s_canonicalize_internal(i64 noundef %0, i64 noundef %1, i64 noundef %2) unnamed_addr #4 {
  %4 = alloca i64, align 8
  %5 = alloca i64, align 8
  store i64 %1, ptr %4, align 8, !tbaa !18
  store i64 %2, ptr %5, align 8, !tbaa !18
  %6 = and i64 %2, 1
  %.not.i.i = icmp eq i64 %6, 0
  br i1 %.not.i.i, label %INT_NEGATIVE_P.exit.i, label %7

7:                                                ; preds = %3
  %8 = icmp slt i64 %2, 0
  br i1 %8, label %12, label %15

INT_NEGATIVE_P.exit.i:                            ; preds = %3
  %9 = inttoptr i64 %2 to ptr
  %10 = load i64, ptr %9, align 8, !tbaa !7
  %11 = and i64 %10, 8192
  %.not.i.i.i = icmp eq i64 %11, 0
  br i1 %.not.i.i.i, label %12, label %17

12:                                               ; preds = %INT_NEGATIVE_P.exit.i, %7
  %13 = tail call i64 @rb_int_uminus(i64 noundef %1) #17
  store i64 %13, ptr %4, align 8, !tbaa !18
  %14 = tail call i64 @rb_int_uminus(i64 noundef %2) #17
  store i64 %14, ptr %5, align 8, !tbaa !18
  br label %nurat_canonicalize.exit

15:                                               ; preds = %7
  %16 = icmp eq i64 %2, 1
  br i1 %16, label %19, label %nurat_canonicalize.exit

17:                                               ; preds = %INT_NEGATIVE_P.exit.i
  %18 = tail call i32 @rb_bigzero_p(i64 noundef %2) #17
  %.not.i = icmp eq i32 %18, 0
  br i1 %.not.i, label %nurat_canonicalize.exit, label %19

19:                                               ; preds = %17, %15
  tail call void @rb_num_zerodiv() #19
  unreachable

nurat_canonicalize.exit:                          ; preds = %12, %15, %17
  call fastcc void @nurat_reduce(ptr noundef %4, ptr noundef %5)
  %20 = load i64, ptr %4, align 8, !tbaa !18
  %21 = load i64, ptr %5, align 8, !tbaa !18
  %22 = tail call align 8 ptr @llvm.threadlocal.address.p0(ptr align 8 @ruby_current_ec)
  %23 = load ptr, ptr %22, align 8, !tbaa !25
  %24 = tail call i64 @rb_wb_protected_newobj_of(ptr noundef %23, i64 noundef %0, i64 noundef 15, i64 noundef 32) #17
  %25 = inttoptr i64 %24 to ptr
  %26 = getelementptr inbounds nuw i8, ptr %25, i64 16
  store i64 %20, ptr %26, align 8, !tbaa !18
  %27 = icmp eq i64 %20, 0
  %28 = and i64 %20, 7
  %29 = icmp ne i64 %28, 0
  %30 = or i1 %27, %29
  br i1 %30, label %RATIONAL_SET_NUM.exit.i, label %31

31:                                               ; preds = %nurat_canonicalize.exit
  tail call void @rb_gc_writebarrier(i64 noundef %24, i64 noundef %20) #17
  br label %RATIONAL_SET_NUM.exit.i

RATIONAL_SET_NUM.exit.i:                          ; preds = %31, %nurat_canonicalize.exit
  %32 = getelementptr inbounds nuw i8, ptr %25, i64 24
  store i64 %21, ptr %32, align 8, !tbaa !18
  %33 = icmp eq i64 %21, 0
  %34 = and i64 %21, 7
  %35 = icmp ne i64 %34, 0
  %36 = or i1 %33, %35
  br i1 %36, label %nurat_s_new_internal.exit, label %37

37:                                               ; preds = %RATIONAL_SET_NUM.exit.i
  tail call void @rb_gc_writebarrier(i64 noundef %24, i64 noundef %21) #17
  br label %nurat_s_new_internal.exit

nurat_s_new_internal.exit:                        ; preds = %RATIONAL_SET_NUM.exit.i, %37
  tail call void @rb_obj_freeze_inline(i64 noundef %24) #17
  ret i64 %24
}